target datalayout = "e-m:e-p270:32:32-p271:32:32-p272:64:64-i64:64-i128:128-f80:128-n8:16:32:64-S128"
target triple = "x86_64-pc-linux-gnu"

%struct.__va_list_tag = type { i32, i32, ptr, ptr }

; Function Attrs: nounwind uwtable
define internal zeroext i1 @MatchesImpl(i1 noundef zeroext %0, i32 noundef %1, ptr noundef %2, i32 noundef %3, ...) #0 {
  %5 = alloca i1, align 1
  %6 = alloca i8, align 1
  %7 = alloca i32, align 4
  %8 = alloca ptr, align 8
  %9 = alloca i32, align 4
  %10 = alloca [64 x ptr], align 16
  %11 = alloca [1 x %struct.__va_list_tag], align 16
  %12 = alloca i32, align 4
  %13 = alloca i32, align 4
  %14 = zext i1 %0 to i8
  store i8 %14, ptr %6, align 1
  store i32 %1, ptr %7, align 4
  store ptr %2, ptr %8, align 8
  store i32 %3, ptr %9, align 4
  call void @llvm.lifetime.start.p0(i64 512, ptr %10) #8
  call void @llvm.lifetime.start.p0(i64 24, ptr %11) #8
  %15 = load i32, ptr %7, align 4
  %16 = load i32, ptr %9, align 4
  %17 = sub i32 %16, 1
  %18 = icmp slt i32 %15, %17
  br i1 %18, label %19, label %20

19:                                               ; preds = %4
  store i1 false, ptr %5, align 1
  store i32 1, ptr %12, align 4
  br label %59

20:                                               ; preds = %4
  %21 = getelementptr inbounds [1 x %struct.__va_list_tag], ptr %11, i64 0, i64 0
  call void @llvm.va_start.p0(ptr %21)
  call void @llvm.lifetime.start.p0(i64 4, ptr %13) #8
  store i32 0, ptr %13, align 4
  br label %22

22:                                               ; preds = %47, %20
  %23 = load i32, ptr %13, align 4
  %24 = load i32, ptr %9, align 4
  %25 = icmp slt i32 %23, %24
  br i1 %25, label %27, label %26

26:                                               ; preds = %22
  store i32 2, ptr %12, align 4
  call void @llvm.lifetime.end.p0(i64 4, ptr %13) #8
  br label %50

27:                                               ; preds = %22
  %28 = getelementptr inbounds [1 x %struct.__va_list_tag], ptr %11, i64 0, i64 0
  %29 = getelementptr inbounds nuw %struct.__va_list_tag, ptr %28, i32 0, i32 0
  %30 = load i32, ptr %29, align 16
  %31 = icmp ule i32 %30, 40
  br i1 %31, label %32, label %37

32:                                               ; preds = %27
  %33 = getelementptr inbounds nuw %struct.__va_list_tag, ptr %28, i32 0, i32 3
  %34 = load ptr, ptr %33, align 16
  %35 = getelementptr i8, ptr %34, i32 %30
  %36 = add i32 %30, 8
  store i32 %36, ptr %29, align 16
  br label %41

37:                                               ; preds = %27
  %38 = getelementptr inbounds nuw %struct.__va_list_tag, ptr %28, i32 0, i32 2
  %39 = load ptr, ptr %38, align 8
  %40 = getelementptr i8, ptr %39, i32 8
  store ptr %40, ptr %38, align 8
  br label %41

41:                                               ; preds = %37, %32
  %42 = phi ptr [ %35, %32 ], [ %39, %37 ]
  %43 = load ptr, ptr %42, align 8
  %44 = load i32, ptr %13, align 4
  %45 = sext i32 %44 to i64
  %46 = getelementptr inbounds [64 x ptr], ptr %10, i64 0, i64 %45
  store ptr %43, ptr %46, align 8
  br label %47

47:                                               ; preds = %41
  %48 = load i32, ptr %13, align 4
  %49 = add i32 %48, 1
  store i32 %49, ptr %13, align 4
  br label %22, !llvm.loop !27

50:                                               ; preds = %26
  %51 = getelementptr inbounds [1 x %struct.__va_list_tag], ptr %11, i64 0, i64 0
  call void @llvm.va_end.p0(ptr %51)
  %52 = load i8, ptr %6, align 1, !range !6, !noundef !7
  %53 = trunc i8 %52 to i1
  %54 = load i32, ptr %7, align 4
  %55 = load ptr, ptr %8, align 8
  %56 = load i32, ptr %9, align 4
  %57 = getelementptr inbounds [64 x ptr], ptr %10, i64 0, i64 0
  %58 = call zeroext i1 @MatchesArray(i1 noundef zeroext %53, i32 noundef %54, ptr noundef %55, i32 noundef %56, ptr noundef %57)
  store i1 %58, ptr %5, align 1
  store i32 1, ptr %12, align 4
  br label %59

59:                                               ; preds = %50, %19
  call void @llvm.lifetime.end.p0(i64 24, ptr %11) #8
  call void @llvm.lifetime.end.p0(i64 512, ptr %10) #8
  %60 = load i1, ptr %5, align 1
  ret i1 %60
}