; Function Attrs: nounwind uwtable
define internal noundef zeroext i1 @MatchesImpl(i1 zeroext %0, i32 noundef %1, ptr noundef readonly captures(none) %2, i32 %3, ...) unnamed_addr #0 {
  %5 = alloca [64 x ptr], align 16
  %6 = alloca [1 x %struct.__va_list_tag], align 16
  call void @llvm.lifetime.start.p0(i64 512, ptr nonnull %5) #11
  call void @llvm.lifetime.start.p0(i64 24, ptr nonnull %6) #11
  %7 = icmp slt i32 %1, 2
  br i1 %7, label %30, label %8

8:                                                ; preds = %4
  call void @llvm.va_start.p0(ptr nonnull %6)
  %.promoted = load i32, ptr %6, align 16
  %9 = getelementptr inbounds nuw i8, ptr %6, i64 8
  %10 = getelementptr inbounds nuw i8, ptr %6, i64 16
  %11 = load ptr, ptr %10, align 16
  %.promoted15 = load ptr, ptr %9, align 8
  br label %14

12:                                               ; preds = %24
  call void @llvm.va_end.p0(ptr nonnull %6)
  %13 = call fastcc zeroext i1 @MatchesArray(i1 noundef zeroext false, i32 noundef %1, ptr noundef %2, i32 noundef 3, ptr noundef nonnull %5)
  br label %30

14:                                               ; preds = %8, %24
  %indvars.iv = phi i64 [ 0, %8 ], [ %indvars.iv.next, %24 ]
  %15 = phi ptr [ %.promoted15, %8 ], [ %25, %24 ]
  %16 = phi i32 [ %.promoted, %8 ], [ %26, %24 ]
  %17 = icmp ult i32 %16, 41
  br i1 %17, label %18, label %22

18:                                               ; preds = %14
  %19 = zext nneg i32 %16 to i64
  %20 = getelementptr i8, ptr %11, i64 %19
  %21 = add nuw nsw i32 %16, 8
  store i32 %21, ptr %6, align 16
  br label %24

22:                                               ; preds = %14
  %23 = getelementptr i8, ptr %15, i64 8
  store ptr %23, ptr %9, align 8
  br label %24

24:                                               ; preds = %22, %18
  %25 = phi ptr [ %15, %18 ], [ %23, %22 ]
  %26 = phi i32 [ %21, %18 ], [ %16, %22 ]
  %27 = phi ptr [ %20, %18 ], [ %15, %22 ]
  %28 = load ptr, ptr %27, align 8
  %29 = getelementptr inbounds nuw [64 x ptr], ptr %5, i64 0, i64 %indvars.iv
  store ptr %28, ptr %29, align 8
  %indvars.iv.next = add nuw nsw i64 %indvars.iv, 1
  %exitcond.not = icmp eq i64 %indvars.iv.next, 3
  br i1 %exitcond.not, label %12, label %14, !llvm.loop !27

30:                                               ; preds = %4, %12
  %.010 = phi i1 [ %13, %12 ], [ false, %4 ]
  call void @llvm.lifetime.end.p0(i64 24, ptr nonnull %6) #11
  call void @llvm.lifetime.end.p0(i64 512, ptr nonnull %5) #11
  ret i1 %.010
}